target datalayout = "e-m:e-p270:32:32-p271:32:32-p272:64:64-i64:64-i128:128-f80:128-n8:16:32:64-S128"
target triple = "x86_64-pc-linux-gnu"

%struct.WOLFSSL = type <{ ptr, ptr, ptr, ptr, [48 x i8], [48 x i8], ptr, ptr, ptr, ptr, ptr, ptr, ptr, ptr, ptr, ptr, ptr, ptr, ptr, i32, [4 x i8], %struct.WOLFSSL_CIPHER, ptr, %struct.Ciphers, %struct.Ciphers, [8 x i8], %struct.Buffers, ptr, ptr, %struct.WOLFSSL_ALERT_HISTORY, %struct.WOLFSSL_ALERT, i32, i32, i32, i32, i32, i32, i32, i16, [2 x i8], i32, i8, %struct.RecordLayerHeader, %struct.MsgsReceived, %struct.ProtocolVersion, %struct.ProtocolVersion, %struct.CipherSpecs, [2 x i8], %struct.Keys, %struct.Options, ptr, i8, i8, i16, [10 x i16], i8, i8, i16, i16, [38 x i8], i32, i32, [4 x i8], ptr, i8, i8, [6 x i8], ptr, ptr, i16, i8, i8, i32, i8, [3 x i8], i32, %struct.OneTimeAuth, ptr }>
%struct.WOLFSSL_CIPHER = type { i8, i8, ptr }
%struct.Ciphers = type { ptr, ptr, ptr, ptr, i8, i8 }
%struct.Buffers = type { %struct.bufferStatic, %struct.bufferStatic, %struct.WOLFSSL_BUFFER_INFO, %struct.WOLFSSL_BUFFER_INFO, %struct.WOLFSSL_BUFFER_INFO, %struct.WOLFSSL_BUFFER_INFO, i32, i32, i8, i8, i8, i8, %struct.WOLFSSL_BUFFER_INFO, %struct.WOLFSSL_BUFFER_INFO, %struct.WOLFSSL_BUFFER_INFO, %struct.WOLFSSL_BUFFER_INFO, ptr, ptr, ptr, i8, i8, i32, i32, ptr, i32, [1 x ptr] }
%struct.bufferStatic = type { [5 x i8], ptr, i32, i32, i32, i8, i8 }
%struct.WOLFSSL_BUFFER_INFO = type { ptr, i32 }
%struct.WOLFSSL_ALERT_HISTORY = type { %struct.WOLFSSL_ALERT, %struct.WOLFSSL_ALERT }
%struct.WOLFSSL_ALERT = type { i32, i32 }
%struct.RecordLayerHeader = type { i8, i8, i8, [2 x i8] }
%struct.MsgsReceived = type { i32 }
%struct.ProtocolVersion = type { i8, i8 }
%struct.CipherSpecs = type { i16, i16, i16, i16, i8, i8, i8, i8, i8, i8, i8, i8 }
%struct.Keys = type { [64 x i8], [64 x i8], [32 x i8], [32 x i8], [16 x i8], [16 x i8], [8 x i8], [12 x i8], [12 x i8], i32, i32, i32, i32, i32, i32, i8, i8, i8, i8 }
%struct.Options = type { i64, i64, i8, i8, i8, i8, i8, i8, i8, i8, i8, i8, i8, i8, i8, i8, i8, i8, i8, i8, i8, i8, i8, i16, i16, i16, i16, i16, i8 }
%struct.OneTimeAuth = type { ptr, i8 }

; Function Attrs: nounwind uwtable
define i32 @TLSX_SupportExtensions(ptr noundef %0) #0 {
  %2 = alloca ptr, align 8
  store ptr %0, ptr %2, align 8, !tbaa !3
  %3 = load ptr, ptr %2, align 8, !tbaa !3
  %4 = icmp ne ptr %3, null
  br i1 %4, label %5, label %18

5:                                                ; preds = %1
  %6 = load ptr, ptr %2, align 8, !tbaa !3
  %7 = call i32 @IsTLS(ptr noundef %6)
  %8 = icmp ne i32 %7, 0
  br i1 %8, label %16, label %9

9:                                                ; preds = %5
  %10 = load ptr, ptr %2, align 8, !tbaa !3
  %11 = getelementptr inbounds nuw %struct.WOLFSSL, ptr %10, i32 0, i32 44
  %12 = getelementptr inbounds nuw %struct.ProtocolVersion, ptr %11, i32 0, i32 0
  %13 = load i8, ptr %12, align 2, !tbaa !93
  %14 = zext i8 %13 to i32
  %15 = icmp eq i32 %14, 254
  br label %16

16:                                               ; preds = %9, %5
  %17 = phi i1 [ true, %5 ], [ %15, %9 ]
  br label %18

18:                                               ; preds = %16, %1
  %19 = phi i1 [ false, %1 ], [ %17, %16 ]
  %20 = zext i1 %19 to i32
  ret i32 %20
}

; Function Attrs: inlinehint nounwind uwtable
define internal zeroext i16 @TLSX_ToSemaphore(i16 noundef zeroext %0) #5 {
  %2 = alloca i16, align 2
  %3 = alloca i16, align 2
  store i16 %0, ptr %3, align 2, !tbaa !73
  %4 = load i16, ptr %3, align 2, !tbaa !73
  %5 = zext i16 %4 to i32
  switch i32 %5, label %7 [
    i32 65281, label %6
  ]

6:                                                ; preds = %1
  store i16 63, ptr %2, align 2
  br label %17

7:                                                ; preds = %1
  %8 = load i16, ptr %3, align 2, !tbaa !73
  %9 = zext i16 %8 to i32
  %10 = icmp sgt i32 %9, 62
  br i1 %10, label %11, label %14

11:                                               ; preds = %7
  br label %12

12:                                               ; preds = %11
  br label %13

13:                                               ; preds = %12
  br label %14

14:                                               ; preds = %13, %7
  br label %15

15:                                               ; preds = %14
  %16 = load i16, ptr %3, align 2, !tbaa !73
  store i16 %16, ptr %2, align 2
  br label %17

17:                                               ; preds = %15, %6
  %18 = load i16, ptr %2, align 2
  ret i16 %18
}

; Function Attrs: nounwind uwtable
define internal void @TLSX_PointFormat_ValidateResponse(ptr noundef %0, ptr noundef %1) #0 {
  %3 = alloca ptr, align 8
  %4 = alloca ptr, align 8
  store ptr %0, ptr %3, align 8, !tbaa !3
  store ptr %1, ptr %4, align 8, !tbaa !8
  %5 = load ptr, ptr %3, align 8, !tbaa !3
  %6 = getelementptr inbounds nuw %struct.WOLFSSL, ptr %5, i32 0, i32 49
  %7 = getelementptr inbounds nuw %struct.Options, ptr %6, i32 0, i32 7
  %8 = load i8, ptr %7, align 1, !tbaa !220
  %9 = zext i8 %8 to i32
  %10 = icmp eq i32 %9, 19
  br i1 %10, label %11, label %12

11:                                               ; preds = %2
  br label %51

12:                                               ; preds = %2
  %13 = load ptr, ptr %3, align 8, !tbaa !3
  %14 = getelementptr inbounds nuw %struct.WOLFSSL, ptr %13, i32 0, i32 49
  %15 = getelementptr inbounds nuw %struct.Options, ptr %14, i32 0, i32 7
  %16 = load i8, ptr %15, align 1, !tbaa !220
  %17 = zext i8 %16 to i32
  %18 = icmp eq i32 %17, 192
  br i1 %18, label %33, label %19

19:                                               ; preds = %12
  %20 = load ptr, ptr %3, align 8, !tbaa !3
  %21 = getelementptr inbounds nuw %struct.WOLFSSL, ptr %20, i32 0, i32 49
  %22 = getelementptr inbounds nuw %struct.Options, ptr %21, i32 0, i32 7
  %23 = load i8, ptr %22, align 1, !tbaa !220
  %24 = zext i8 %23 to i32
  %25 = icmp eq i32 %24, 208
  br i1 %25, label %33, label %26

26:                                               ; preds = %19
  %27 = load ptr, ptr %3, align 8, !tbaa !3
  %28 = getelementptr inbounds nuw %struct.WOLFSSL, ptr %27, i32 0, i32 49
  %29 = getelementptr inbounds nuw %struct.Options, ptr %28, i32 0, i32 7
  %30 = load i8, ptr %29, align 1, !tbaa !220
  %31 = zext i8 %30 to i32
  %32 = icmp eq i32 %31, 204
  br i1 %32, label %33, label %34

33:                                               ; preds = %26, %19, %12
  br label %51

34:                                               ; preds = %26
  %35 = call zeroext i16 @TLSX_ToSemaphore(i16 noundef zeroext 11)
  %36 = zext i16 %35 to i32
  %37 = srem i32 %36, 8
  %38 = shl i32 1, %37
  %39 = trunc i32 %38 to i8
  %40 = zext i8 %39 to i32
  %41 = load ptr, ptr %4, align 8, !tbaa !8
  %42 = call zeroext i16 @TLSX_ToSemaphore(i16 noundef zeroext 11)
  %43 = zext i16 %42 to i32
  %44 = sdiv i32 %43, 8
  %45 = sext i32 %44 to i64
  %46 = getelementptr inbounds i8, ptr %41, i64 %45
  %47 = load i8, ptr %46, align 1, !tbaa !55
  %48 = zext i8 %47 to i32
  %49 = or i32 %48, %40
  %50 = trunc i32 %49 to i8
  store i8 %50, ptr %46, align 1, !tbaa !55
  br label %51

51:                                               ; preds = %34, %33, %11
  ret void
}

; Function Attrs: nounwind uwtable
define i32 @TLSX_GetResponseSize(ptr noundef %0, i8 noundef zeroext %1, ptr noundef %2) #0 {
  %4 = alloca i32, align 4
  %5 = alloca ptr, align 8
  %6 = alloca i8, align 1
  %7 = alloca ptr, align 8
  %8 = alloca i32, align 4
  %9 = alloca i16, align 2
  %10 = alloca [9 x i8], align 1
  %11 = alloca i32, align 4
  store ptr %0, ptr %5, align 8, !tbaa !3
  store i8 %1, ptr %6, align 1, !tbaa !55
  store ptr %2, ptr %7, align 8, !tbaa !122
  call void @llvm.lifetime.start.p0(i64 4, ptr %8) #8
  store i32 0, ptr %8, align 4, !tbaa !12
  call void @llvm.lifetime.start.p0(i64 2, ptr %9) #8
  store i16 0, ptr %9, align 2, !tbaa !73
  call void @llvm.lifetime.start.p0(i64 9, ptr %10) #8
  call void @llvm.memset.p0.i64(ptr align 1 %10, i8 0, i64 9, i1 false)
  %12 = load i8, ptr %6, align 1, !tbaa !55
  %13 = zext i8 %12 to i32
  switch i32 %13, label %171 [
    i32 2, label %14
    i32 6, label %73
    i32 8, label %107
    i32 11, label %153
  ]

14:                                               ; preds = %3
  %15 = load ptr, ptr %5, align 8, !tbaa !3
  %16 = getelementptr inbounds [9 x i8], ptr %10, i64 0, i64 0
  call void @TLSX_PointFormat_ValidateResponse(ptr noundef %15, ptr noundef %16)
  %17 = load ptr, ptr %5, align 8, !tbaa !3
  %18 = getelementptr inbounds nuw %struct.WOLFSSL, ptr %17, i32 0, i32 44
  %19 = load i16, ptr %18, align 2
  %20 = call i32 @IsAtLeastTLSv1_3(i16 %19)
  %21 = icmp ne i32 %20, 0
  br i1 %21, label %22, label %56

22:                                               ; preds = %14
  %23 = getelementptr inbounds [9 x i8], ptr %10, i64 0, i64 0
  call void @llvm.memset.p0.i64(ptr align 1 %23, i8 -1, i64 9, i1 false)
  %24 = call zeroext i16 @TLSX_ToSemaphore(i16 noundef zeroext 43)
  %25 = zext i16 %24 to i32
  %26 = srem i32 %25, 8
  %27 = shl i32 1, %26
  %28 = xor i32 %27, -1
  %29 = trunc i32 %28 to i8
  %30 = zext i8 %29 to i32
  %31 = call zeroext i16 @TLSX_ToSemaphore(i16 noundef zeroext 43)
  %32 = zext i16 %31 to i32
  %33 = sdiv i32 %32, 8
  %34 = sext i32 %33 to i64
  %35 = getelementptr inbounds [9 x i8], ptr %10, i64 0, i64 %34
  %36 = load i8, ptr %35, align 1, !tbaa !55
  %37 = zext i8 %36 to i32
  %38 = and i32 %37, %30
  %39 = trunc i32 %38 to i8
  store i8 %39, ptr %35, align 1, !tbaa !55
  %40 = call zeroext i16 @TLSX_ToSemaphore(i16 noundef zeroext 51)
  %41 = zext i16 %40 to i32
  %42 = srem i32 %41, 8
  %43 = shl i32 1, %42
  %44 = xor i32 %43, -1
  %45 = trunc i32 %44 to i8
  %46 = zext i8 %45 to i32
  %47 = call zeroext i16 @TLSX_ToSemaphore(i16 noundef zeroext 51)
  %48 = zext i16 %47 to i32
  %49 = sdiv i32 %48, 8
  %50 = sext i32 %49 to i64
  %51 = getelementptr inbounds [9 x i8], ptr %10, i64 0, i64 %50
  %52 = load i8, ptr %51, align 1, !tbaa !55
  %53 = zext i8 %52 to i32
  %54 = and i32 %53, %46
  %55 = trunc i32 %54 to i8
  store i8 %55, ptr %51, align 1, !tbaa !55
  br label %72

56:                                               ; preds = %14
  %57 = call zeroext i16 @TLSX_ToSemaphore(i16 noundef zeroext 51)
  %58 = zext i16 %57 to i32
  %59 = srem i32 %58, 8
  %60 = shl i32 1, %59
  %61 = trunc i32 %60 to i8
  %62 = zext i8 %61 to i32
  %63 = call zeroext i16 @TLSX_ToSemaphore(i16 noundef zeroext 51)
  %64 = zext i16 %63 to i32
  %65 = sdiv i32 %64, 8
  %66 = sext i32 %65 to i64
  %67 = getelementptr inbounds [9 x i8], ptr %10, i64 0, i64 %66
  %68 = load i8, ptr %67, align 1, !tbaa !55
  %69 = zext i8 %68 to i32
  %70 = or i32 %69, %62
  %71 = trunc i32 %70 to i8
  store i8 %71, ptr %67, align 1, !tbaa !55
  br label %72

72:                                               ; preds = %56, %22
  br label %171

73:                                               ; preds = %3
  %74 = getelementptr inbounds [9 x i8], ptr %10, i64 0, i64 0
  call void @llvm.memset.p0.i64(ptr align 1 %74, i8 -1, i64 9, i1 false)
  %75 = call zeroext i16 @TLSX_ToSemaphore(i16 noundef zeroext 43)
  %76 = zext i16 %75 to i32
  %77 = srem i32 %76, 8
  %78 = shl i32 1, %77
  %79 = xor i32 %78, -1
  %80 = trunc i32 %79 to i8
  %81 = zext i8 %80 to i32
  %82 = call zeroext i16 @TLSX_ToSemaphore(i16 noundef zeroext 43)
  %83 = zext i16 %82 to i32
  %84 = sdiv i32 %83, 8
  %85 = sext i32 %84 to i64
  %86 = getelementptr inbounds [9 x i8], ptr %10, i64 0, i64 %85
  %87 = load i8, ptr %86, align 1, !tbaa !55
  %88 = zext i8 %87 to i32
  %89 = and i32 %88, %81
  %90 = trunc i32 %89 to i8
  store i8 %90, ptr %86, align 1, !tbaa !55
  %91 = call zeroext i16 @TLSX_ToSemaphore(i16 noundef zeroext 51)
  %92 = zext i16 %91 to i32
  %93 = srem i32 %92, 8
  %94 = shl i32 1, %93
  %95 = xor i32 %94, -1
  %96 = trunc i32 %95 to i8
  %97 = zext i8 %96 to i32
  %98 = call zeroext i16 @TLSX_ToSemaphore(i16 noundef zeroext 51)
  %99 = zext i16 %98 to i32
  %100 = sdiv i32 %99, 8
  %101 = sext i32 %100 to i64
  %102 = getelementptr inbounds [9 x i8], ptr %10, i64 0, i64 %101
  %103 = load i8, ptr %102, align 1, !tbaa !55
  %104 = zext i8 %103 to i32
  %105 = and i32 %104, %97
  %106 = trunc i32 %105 to i8
  store i8 %106, ptr %102, align 1, !tbaa !55
  br label %171

107:                                              ; preds = %3
  %108 = call zeroext i16 @TLSX_ToSemaphore(i16 noundef zeroext 11)
  %109 = zext i16 %108 to i32
  %110 = srem i32 %109, 8
  %111 = shl i32 1, %110
  %112 = trunc i32 %111 to i8
  %113 = zext i8 %112 to i32
  %114 = call zeroext i16 @TLSX_ToSemaphore(i16 noundef zeroext 11)
  %115 = zext i16 %114 to i32
  %116 = sdiv i32 %115, 8
  %117 = sext i32 %116 to i64
  %118 = getelementptr inbounds [9 x i8], ptr %10, i64 0, i64 %117
  %119 = load i8, ptr %118, align 1, !tbaa !55
  %120 = zext i8 %119 to i32
  %121 = or i32 %120, %113
  %122 = trunc i32 %121 to i8
  store i8 %122, ptr %118, align 1, !tbaa !55
  %123 = call zeroext i16 @TLSX_ToSemaphore(i16 noundef zeroext 43)
  %124 = zext i16 %123 to i32
  %125 = srem i32 %124, 8
  %126 = shl i32 1, %125
  %127 = trunc i32 %126 to i8
  %128 = zext i8 %127 to i32
  %129 = call zeroext i16 @TLSX_ToSemaphore(i16 noundef zeroext 43)
  %130 = zext i16 %129 to i32
  %131 = sdiv i32 %130, 8
  %132 = sext i32 %131 to i64
  %133 = getelementptr inbounds [9 x i8], ptr %10, i64 0, i64 %132
  %134 = load i8, ptr %133, align 1, !tbaa !55
  %135 = zext i8 %134 to i32
  %136 = or i32 %135, %128
  %137 = trunc i32 %136 to i8
  store i8 %137, ptr %133, align 1, !tbaa !55
  %138 = call zeroext i16 @TLSX_ToSemaphore(i16 noundef zeroext 51)
  %139 = zext i16 %138 to i32
  %140 = srem i32 %139, 8
  %141 = shl i32 1, %140
  %142 = trunc i32 %141 to i8
  %143 = zext i8 %142 to i32
  %144 = call zeroext i16 @TLSX_ToSemaphore(i16 noundef zeroext 51)
  %145 = zext i16 %144 to i32
  %146 = sdiv i32 %145, 8
  %147 = sext i32 %146 to i64
  %148 = getelementptr inbounds [9 x i8], ptr %10, i64 0, i64 %147
  %149 = load i8, ptr %148, align 1, !tbaa !55
  %150 = zext i8 %149 to i32
  %151 = or i32 %150, %143
  %152 = trunc i32 %151 to i8
  store i8 %152, ptr %148, align 1, !tbaa !55
  br label %171

153:                                              ; preds = %3
  %154 = getelementptr inbounds [9 x i8], ptr %10, i64 0, i64 0
  call void @llvm.memset.p0.i64(ptr align 1 %154, i8 -1, i64 9, i1 false)
  %155 = call zeroext i16 @TLSX_ToSemaphore(i16 noundef zeroext 5)
  %156 = zext i16 %155 to i32
  %157 = srem i32 %156, 8
  %158 = shl i32 1, %157
  %159 = xor i32 %158, -1
  %160 = trunc i32 %159 to i8
  %161 = zext i8 %160 to i32
  %162 = call zeroext i16 @TLSX_ToSemaphore(i16 noundef zeroext 5)
  %163 = zext i16 %162 to i32
  %164 = sdiv i32 %163, 8
  %165 = sext i32 %164 to i64
  %166 = getelementptr inbounds [9 x i8], ptr %10, i64 0, i64 %165
  %167 = load i8, ptr %166, align 1, !tbaa !55
  %168 = zext i8 %167 to i32
  %169 = and i32 %168, %161
  %170 = trunc i32 %169 to i8
  store i8 %170, ptr %166, align 1, !tbaa !55
  br label %171

171:                                              ; preds = %3, %153, %107, %73, %72
  %172 = load ptr, ptr %5, align 8, !tbaa !3
  %173 = getelementptr inbounds nuw %struct.WOLFSSL, ptr %172, i32 0, i32 49
  %174 = getelementptr inbounds nuw %struct.Options, ptr %173, i32 0, i32 1
  %175 = load i64, ptr %174, align 8
  %176 = lshr i64 %175, 41
  %177 = and i64 %176, 1
  %178 = trunc i64 %177 to i16
  %179 = zext i16 %178 to i32
  %180 = icmp ne i32 %179, 0
  br i1 %180, label %181, label %196

181:                                              ; preds = %171
  %182 = load i8, ptr %6, align 1, !tbaa !55
  %183 = zext i8 %182 to i32
  %184 = icmp eq i32 %183, 2
  br i1 %184, label %185, label %196

185:                                              ; preds = %181
  %186 = load ptr, ptr %5, align 8, !tbaa !3
  %187 = getelementptr inbounds nuw %struct.WOLFSSL, ptr %186, i32 0, i32 44
  %188 = load i16, ptr %187, align 2
  %189 = call i32 @IsAtLeastTLSv1_3(i16 %188)
  %190 = icmp ne i32 %189, 0
  br i1 %190, label %196, label %191

191:                                              ; preds = %185
  %192 = load i16, ptr %9, align 2, !tbaa !73
  %193 = zext i16 %192 to i32
  %194 = add nsw i32 %193, 4
  %195 = trunc i32 %194 to i16
  store i16 %195, ptr %9, align 2, !tbaa !73
  br label %196

196:                                              ; preds = %191, %185, %181, %171
  %197 = load ptr, ptr %5, align 8, !tbaa !3
  %198 = call i32 @TLSX_SupportExtensions(ptr noundef %197)
  %199 = icmp ne i32 %198, 0
  br i1 %199, label %200, label %212

200:                                              ; preds = %196
  %201 = load ptr, ptr %5, align 8, !tbaa !3
  %202 = getelementptr inbounds nuw %struct.WOLFSSL, ptr %201, i32 0, i32 77
  %203 = load ptr, ptr %202, align 8, !tbaa !107
  %204 = getelementptr inbounds [9 x i8], ptr %10, i64 0, i64 0
  %205 = load i8, ptr %6, align 1, !tbaa !55
  %206 = call i32 @TLSX_GetSize(ptr noundef %203, ptr noundef %204, i8 noundef zeroext %205, ptr noundef %9)
  store i32 %206, ptr %8, align 4, !tbaa !12
  %207 = load i32, ptr %8, align 4, !tbaa !12
  %208 = icmp ne i32 %207, 0
  br i1 %208, label %209, label %211

209:                                              ; preds = %200
  %210 = load i32, ptr %8, align 4, !tbaa !12
  store i32 %210, ptr %4, align 4
  store i32 1, ptr %11, align 4
  br label %234

211:                                              ; preds = %200
  br label %212

212:                                              ; preds = %211, %196
  %213 = load i16, ptr %9, align 2, !tbaa !73
  %214 = zext i16 %213 to i32
  %215 = icmp ne i32 %214, 0
  br i1 %215, label %220, label %216

216:                                              ; preds = %212
  %217 = load i8, ptr %6, align 1, !tbaa !55
  %218 = zext i8 %217 to i32
  %219 = icmp ne i32 %218, 2
  br i1 %219, label %220, label %225

220:                                              ; preds = %216, %212
  %221 = load i16, ptr %9, align 2, !tbaa !73
  %222 = zext i16 %221 to i32
  %223 = add nsw i32 %222, 2
  %224 = trunc i32 %223 to i16
  store i16 %224, ptr %9, align 2, !tbaa !73
  br label %225

225:                                              ; preds = %220, %216
  %226 = load i16, ptr %9, align 2, !tbaa !73
  %227 = zext i16 %226 to i32
  %228 = load ptr, ptr %7, align 8, !tbaa !122
  %229 = load i16, ptr %228, align 2, !tbaa !73
  %230 = zext i16 %229 to i32
  %231 = add nsw i32 %230, %227
  %232 = trunc i32 %231 to i16
  store i16 %232, ptr %228, align 2, !tbaa !73
  %233 = load i32, ptr %8, align 4, !tbaa !12
  store i32 %233, ptr %4, align 4
  store i32 1, ptr %11, align 4
  br label %234

234:                                              ; preds = %225, %209
  call void @llvm.lifetime.end.p0(i64 9, ptr %10) #8
  call void @llvm.lifetime.end.p0(i64 2, ptr %9) #8
  call void @llvm.lifetime.end.p0(i64 4, ptr %8) #8
  %235 = load i32, ptr %4, align 4
  ret i32 %235
}