; Function Attrs: nounwind uwtable
define range(i32 -394, 1) i32 @TLSX_GetResponseSize(ptr noundef %0, i8 noundef zeroext %1, ptr noundef captures(none) %2) local_unnamed_addr #0 {
  %4 = alloca i16, align 2
  %5 = alloca [9 x i8], align 1
  call void @llvm.lifetime.start.p0(i64 2, ptr nonnull %4) #17
  store i16 0, ptr %4, align 2, !tbaa !64
  call void @llvm.lifetime.start.p0(i64 9, ptr nonnull %5) #17
  call void @llvm.memset.p0.i64(ptr noundef nonnull align 1 dereferenceable(9) %5, i8 0, i64 9, i1 false)
  switch i8 %1, label %25 [
    i8 2, label %6
    i8 6, label %15
    i8 8, label %18
    i8 11, label %22
  ]

6:                                                ; preds = %3
  %7 = getelementptr i8, ptr %0, i64 1037
  %.val = load i8, ptr %7, align 1, !tbaa !201
  switch i8 %.val, label %8 [
    i8 19, label %TLSX_PointFormat_ValidateResponse.exit
    i8 -64, label %TLSX_PointFormat_ValidateResponse.exit
    i8 -48, label %TLSX_PointFormat_ValidateResponse.exit
    i8 -52, label %TLSX_PointFormat_ValidateResponse.exit
  ]

8:                                                ; preds = %6
  %9 = getelementptr inbounds nuw i8, ptr %5, i64 1
  store i8 8, ptr %9, align 1, !tbaa !51
  br label %TLSX_PointFormat_ValidateResponse.exit

TLSX_PointFormat_ValidateResponse.exit:           ; preds = %6, %6, %6, %6, %8
  %10 = getelementptr inbounds nuw i8, ptr %0, i64 710
  %11 = load i16, ptr %10, align 2
  %12 = tail call i32 @IsAtLeastTLSv1_3(i16 %11) #17
  %.not = icmp eq i32 %12, 0
  br i1 %.not, label %.sink.split, label %13

13:                                               ; preds = %TLSX_PointFormat_ValidateResponse.exit
  call void @llvm.memset.p0.i64(ptr noundef nonnull align 1 dereferenceable(9) %5, i8 -1, i64 9, i1 false)
  %14 = getelementptr inbounds nuw i8, ptr %5, i64 5
  store i8 -9, ptr %14, align 1, !tbaa !51
  br label %.sink.split

15:                                               ; preds = %3
  call void @llvm.memset.p0.i64(ptr noundef nonnull align 1 dereferenceable(9) %5, i8 -1, i64 9, i1 false)
  %16 = getelementptr inbounds nuw i8, ptr %5, i64 5
  store i8 -9, ptr %16, align 1, !tbaa !51
  %17 = getelementptr inbounds nuw i8, ptr %5, i64 6
  store i8 -9, ptr %17, align 1, !tbaa !51
  br label %36

18:                                               ; preds = %3
  %19 = getelementptr inbounds nuw i8, ptr %5, i64 1
  store i8 8, ptr %19, align 1, !tbaa !51
  %20 = getelementptr inbounds nuw i8, ptr %5, i64 5
  store i8 8, ptr %20, align 1, !tbaa !51
  %21 = getelementptr inbounds nuw i8, ptr %5, i64 6
  store i8 8, ptr %21, align 1, !tbaa !51
  br label %36

22:                                               ; preds = %3
  %23 = getelementptr inbounds nuw i8, ptr %5, i64 1
  store i64 -1, ptr %23, align 1
  store i8 -33, ptr %5, align 1, !tbaa !51
  br label %36

.sink.split:                                      ; preds = %TLSX_PointFormat_ValidateResponse.exit, %13
  %.sink = phi i8 [ -9, %13 ], [ 8, %TLSX_PointFormat_ValidateResponse.exit ]
  %24 = getelementptr inbounds nuw i8, ptr %5, i64 6
  store i8 %.sink, ptr %24, align 1, !tbaa !51
  br label %25

25:                                               ; preds = %.sink.split, %3
  %26 = getelementptr inbounds nuw i8, ptr %0, i64 1024
  %27 = load i64, ptr %26, align 8
  %28 = and i64 %27, 2199023255552
  %29 = icmp ne i64 %28, 0
  %30 = icmp eq i8 %1, 2
  %or.cond = and i1 %30, %29
  br i1 %or.cond, label %31, label %.thread26

31:                                               ; preds = %25
  %32 = getelementptr inbounds nuw i8, ptr %0, i64 710
  %33 = load i16, ptr %32, align 2
  %34 = tail call i32 @IsAtLeastTLSv1_3(i16 %33) #17
  %.not21 = icmp eq i32 %34, 0
  br i1 %.not21, label %35, label %.thread26

35:                                               ; preds = %31
  store i16 4, ptr %4, align 2, !tbaa !64
  br label %.thread26

36:                                               ; preds = %22, %18, %15
  %.not.i = icmp eq ptr %0, null
  br i1 %.not.i, label %.thread31, label %.thread26

.thread26:                                        ; preds = %25, %31, %35, %36
  %37 = phi i16 [ 0, %25 ], [ 0, %31 ], [ 4, %35 ], [ 0, %36 ]
  %38 = tail call i32 @IsTLS(ptr noundef nonnull %0) #17
  %.not3.i = icmp eq i32 %38, 0
  br i1 %.not3.i, label %TLSX_SupportExtensions.exit, label %TLSX_SupportExtensions.exit.thread29

TLSX_SupportExtensions.exit:                      ; preds = %.thread26
  %39 = getelementptr inbounds nuw i8, ptr %0, i64 710
  %40 = load i8, ptr %39, align 2, !tbaa !75
  %.not33 = icmp eq i8 %40, -2
  br i1 %.not33, label %TLSX_SupportExtensions.exit.thread29, label %44

TLSX_SupportExtensions.exit.thread29:             ; preds = %.thread26, %TLSX_SupportExtensions.exit
  %41 = getelementptr inbounds nuw i8, ptr %0, i64 1224
  %42 = load ptr, ptr %41, align 8, !tbaa !100
  %43 = call fastcc i32 @TLSX_GetSize(ptr noundef %42, ptr noundef %5, i8 noundef zeroext %1, ptr noundef %4)
  %.not23 = icmp eq i32 %43, 0
  br i1 %.not23, label %TLSX_SupportExtensions.exit.thread29._crit_edge, label %54

TLSX_SupportExtensions.exit.thread29._crit_edge:  ; preds = %TLSX_SupportExtensions.exit.thread29
  %.pre = load i16, ptr %4, align 2, !tbaa !64
  br label %44

44:                                               ; preds = %TLSX_SupportExtensions.exit.thread29._crit_edge, %TLSX_SupportExtensions.exit
  %45 = phi i16 [ %.pre, %TLSX_SupportExtensions.exit.thread29._crit_edge ], [ %37, %TLSX_SupportExtensions.exit ]
  %46 = icmp ne i16 %45, 0
  %47 = icmp ne i8 %1, 2
  %or.cond5 = or i1 %47, %46
  br i1 %or.cond5, label %.thread31, label %50

.thread31:                                        ; preds = %36, %44
  %48 = phi i16 [ %45, %44 ], [ 0, %36 ]
  %49 = add i16 %48, 2
  br label %50

50:                                               ; preds = %44, %.thread31
  %51 = phi i16 [ 0, %44 ], [ %49, %.thread31 ]
  %52 = load i16, ptr %2, align 2, !tbaa !64
  %53 = add i16 %52, %51
  store i16 %53, ptr %2, align 2, !tbaa !64
  br label %54

54:                                               ; preds = %TLSX_SupportExtensions.exit.thread29, %50
  %.019 = phi i32 [ 0, %50 ], [ %43, %TLSX_SupportExtensions.exit.thread29 ]
  call void @llvm.lifetime.end.p0(i64 9, ptr nonnull %5) #17
  call void @llvm.lifetime.end.p0(i64 2, ptr nonnull %4) #17
  ret i32 %.019
}